; Function Attrs: mustprogress nofree norecurse nosync nounwind memory(read, argmem: readwrite, inaccessiblemem: none) uwtable
define internal fastcc noundef zeroext i1 @_ZN4absl18debugging_internal12_GLOBAL__N_116RustSymbolParser12BeginBackrefEv(ptr noundef nonnull align 8 captures(none) dereferenceable(432) %0) unnamed_addr #2 align 2 {
  %2 = getelementptr inbounds nuw i8, ptr %0, i64 400
  %3 = load i32, ptr %2, align 8, !tbaa !17
  %4 = getelementptr inbounds nuw i8, ptr %0, i64 408
  %5 = load ptr, ptr %4, align 8, !tbaa !4
  %6 = sext i32 %3 to i64
  %7 = getelementptr inbounds i8, ptr %5, i64 %6
  %8 = load i8, ptr %7, align 1, !tbaa !13
  %.not.i.i = icmp eq i8 %8, 95
  br i1 %.not.i.i, label %14, label %_ZN4absl18debugging_internal12_GLOBAL__N_116RustSymbolParser3EatEc.exit.preheader.i

_ZN4absl18debugging_internal12_GLOBAL__N_116RustSymbolParser3EatEc.exit.preheader.i: ; preds = %1
  %9 = and i8 %8, -33
  %10 = add i8 %9, -65
  %11 = icmp ult i8 %10, 26
  %12 = add i8 %8, -48
  %13 = icmp ult i8 %12, 10
  %or.cond25.i = or i1 %13, %11
  br i1 %or.cond25.i, label %.critedge.i, label %_ZN4absl18debugging_internal12_GLOBAL__N_116RustSymbolParser12PushPositionEi.exit

14:                                               ; preds = %1
  %15 = add nsw i32 %3, 1
  store i32 %15, ptr %2, align 8, !tbaa !17
  br label %_ZN4absl18debugging_internal12_GLOBAL__N_116RustSymbolParser17ParseBase62NumberERi.exit

.critedge.i:                                      ; preds = %_ZN4absl18debugging_internal12_GLOBAL__N_116RustSymbolParser3EatEc.exit.preheader.i, %_ZN4absl18debugging_internal12_GLOBAL__N_116RustSymbolParser3EatEc.exit.i
  %indvars.iv.i = phi i64 [ %indvars.iv.next.i, %_ZN4absl18debugging_internal12_GLOBAL__N_116RustSymbolParser3EatEc.exit.i ], [ %6, %_ZN4absl18debugging_internal12_GLOBAL__N_116RustSymbolParser3EatEc.exit.preheader.i ]
  %16 = phi ptr [ %37, %_ZN4absl18debugging_internal12_GLOBAL__N_116RustSymbolParser3EatEc.exit.i ], [ %7, %_ZN4absl18debugging_internal12_GLOBAL__N_116RustSymbolParser3EatEc.exit.preheader.i ]
  %.01527.i = phi i1 [ %.116.i, %_ZN4absl18debugging_internal12_GLOBAL__N_116RustSymbolParser3EatEc.exit.i ], [ false, %_ZN4absl18debugging_internal12_GLOBAL__N_116RustSymbolParser3EatEc.exit.preheader.i ]
  %.01726.i = phi i32 [ %.118.i, %_ZN4absl18debugging_internal12_GLOBAL__N_116RustSymbolParser3EatEc.exit.i ], [ 0, %_ZN4absl18debugging_internal12_GLOBAL__N_116RustSymbolParser3EatEc.exit.preheader.i ]
  %indvars.iv.next.i = add nsw i64 %indvars.iv.i, 1
  %17 = trunc nsw i64 %indvars.iv.next.i to i32
  store i32 %17, ptr %2, align 8, !tbaa !17
  %18 = load i8, ptr %16, align 1, !tbaa !13
  %.not.i = icmp slt i32 %.01726.i, 34636833
  br i1 %.not.i, label %19, label %_ZN4absl18debugging_internal12_GLOBAL__N_116RustSymbolParser3EatEc.exit.i

19:                                               ; preds = %.critedge.i
  %20 = add i8 %18, -48
  %21 = icmp ult i8 %20, 10
  br i1 %21, label %22, label %25

22:                                               ; preds = %19
  %23 = zext nneg i8 %18 to i32
  %24 = add nsw i32 %23, -48
  br label %34

25:                                               ; preds = %19
  %26 = add i8 %18, -97
  %27 = icmp ult i8 %26, 26
  br i1 %27, label %28, label %31

28:                                               ; preds = %25
  %29 = zext nneg i8 %18 to i32
  %30 = add nsw i32 %29, -87
  br label %34

31:                                               ; preds = %25
  %32 = sext i8 %18 to i32
  %33 = add nsw i32 %32, -29
  br label %34

34:                                               ; preds = %31, %28, %22
  %.0.i = phi i32 [ %24, %22 ], [ %30, %28 ], [ %33, %31 ]
  %35 = mul nsw i32 %.01726.i, 62
  %36 = add nsw i32 %.0.i, %35
  br label %_ZN4absl18debugging_internal12_GLOBAL__N_116RustSymbolParser3EatEc.exit.i

_ZN4absl18debugging_internal12_GLOBAL__N_116RustSymbolParser3EatEc.exit.i: ; preds = %34, %.critedge.i
  %.118.i = phi i32 [ %36, %34 ], [ %.01726.i, %.critedge.i ]
  %.116.i = phi i1 [ %.01527.i, %34 ], [ true, %.critedge.i ]
  %37 = getelementptr inbounds i8, ptr %5, i64 %indvars.iv.next.i
  %38 = load i8, ptr %37, align 1, !tbaa !13
  %39 = and i8 %38, -33
  %40 = add i8 %39, -65
  %41 = icmp ult i8 %40, 26
  %42 = add i8 %38, -48
  %43 = icmp ult i8 %42, 10
  %or.cond.i = or i1 %43, %41
  br i1 %or.cond.i, label %.critedge.i, label %_ZN4absl18debugging_internal12_GLOBAL__N_116RustSymbolParser3EatEc.exit._crit_edge.i, !llvm.loop !19

_ZN4absl18debugging_internal12_GLOBAL__N_116RustSymbolParser3EatEc.exit._crit_edge.i: ; preds = %_ZN4absl18debugging_internal12_GLOBAL__N_116RustSymbolParser3EatEc.exit.i
  %44 = icmp eq i8 %38, 95
  br i1 %44, label %45, label %_ZN4absl18debugging_internal12_GLOBAL__N_116RustSymbolParser12PushPositionEi.exit

45:                                               ; preds = %_ZN4absl18debugging_internal12_GLOBAL__N_116RustSymbolParser3EatEc.exit._crit_edge.i
  %46 = add nsw i32 %.118.i, 1
  %47 = add nsw i32 %17, 1
  store i32 %47, ptr %2, align 8, !tbaa !17
  br i1 %.116.i, label %_ZN4absl18debugging_internal12_GLOBAL__N_116RustSymbolParser12PushPositionEi.exit, label %_ZN4absl18debugging_internal12_GLOBAL__N_116RustSymbolParser17ParseBase62NumberERi.exit

_ZN4absl18debugging_internal12_GLOBAL__N_116RustSymbolParser17ParseBase62NumberERi.exit: ; preds = %45, %14
  %48 = phi i32 [ %15, %14 ], [ %47, %45 ]
  %.06 = phi i32 [ 0, %14 ], [ %46, %45 ]
  %49 = icmp sgt i32 %.06, -1
  %50 = add nsw i32 %3, -3
  %.not = icmp slt i32 %.06, %50
  %or.cond = select i1 %49, i1 %.not, i1 false
  br i1 %or.cond, label %51, label %_ZN4absl18debugging_internal12_GLOBAL__N_116RustSymbolParser12PushPositionEi.exit

51:                                               ; preds = %_ZN4absl18debugging_internal12_GLOBAL__N_116RustSymbolParser17ParseBase62NumberERi.exit
  %52 = getelementptr inbounds nuw i8, ptr %0, i64 392
  %53 = load i32, ptr %52, align 8, !tbaa !27
  %.not12 = icmp eq i32 %53, 16
  br i1 %.not12, label %_ZN4absl18debugging_internal12_GLOBAL__N_116RustSymbolParser12PushPositionEi.exit, label %54

54:                                               ; preds = %51
  %55 = add nuw nsw i32 %.06, 2
  %56 = getelementptr inbounds nuw i8, ptr %0, i64 328
  %57 = add nsw i32 %53, 1
  store i32 %57, ptr %52, align 8, !tbaa !27
  %58 = sext i32 %53 to i64
  %59 = getelementptr inbounds [16 x i32], ptr %56, i64 0, i64 %58
  store i32 %48, ptr %59, align 4, !tbaa !28
  store i32 %55, ptr %2, align 8, !tbaa !17
  br label %_ZN4absl18debugging_internal12_GLOBAL__N_116RustSymbolParser12PushPositionEi.exit

_ZN4absl18debugging_internal12_GLOBAL__N_116RustSymbolParser12PushPositionEi.exit: ; preds = %45, %_ZN4absl18debugging_internal12_GLOBAL__N_116RustSymbolParser3EatEc.exit.preheader.i, %_ZN4absl18debugging_internal12_GLOBAL__N_116RustSymbolParser3EatEc.exit._crit_edge.i, %51, %_ZN4absl18debugging_internal12_GLOBAL__N_116RustSymbolParser17ParseBase62NumberERi.exit, %54
  %.0 = phi i1 [ true, %54 ], [ false, %_ZN4absl18debugging_internal12_GLOBAL__N_116RustSymbolParser17ParseBase62NumberERi.exit ], [ false, %51 ], [ false, %_ZN4absl18debugging_internal12_GLOBAL__N_116RustSymbolParser3EatEc.exit._crit_edge.i ], [ false, %_ZN4absl18debugging_internal12_GLOBAL__N_116RustSymbolParser3EatEc.exit.preheader.i ], [ false, %45 ]
  ret i1 %.0
}